; ModuleID = '38/997.c'
source_filename = "38/997.c"
target datalayout = "e-m:e-p270:32:32-p271:32:32-p272:64:64-i64:64-f80:128-n8:16:32:64-S128"
target triple = "x86_64-pc-linux-gnu"

@.str = private unnamed_addr constant [3 x i8] c"%d\00", align 1
@.str.1 = private unnamed_addr constant [4 x i8] c"%lf\00", align 1
@.str.2 = private unnamed_addr constant [7 x i8] c"%.5lf\0A\00", align 1

; Function Attrs: noinline nounwind uwtable
define dso_local i32 @main(i32 %0, i8** %1) #0 {
  %3 = alloca i32, align 4
  %4 = alloca i32, align 4
  %5 = alloca i8**, align 8
  %6 = alloca i32, align 4
  %7 = alloca i32, align 4
  %8 = alloca i32, align 4
  %9 = alloca i32, align 4
  %10 = alloca i32, align 4
  %11 = alloca [100 x double], align 16
  %12 = alloca double, align 8
  %13 = alloca double, align 8
  %14 = alloca double, align 8
  %15 = alloca double, align 8
  %16 = alloca double, align 8
  %17 = alloca double, align 8
  store i32 0, i32* %3, align 4
  store i32 %0, i32* %4, align 4
  store i8** %1, i8*** %5, align 8
  %18 = call i32 (i8*, ...) @__isoc99_scanf(i8* getelementptr inbounds ([3 x i8], [3 x i8]* @.str, i64 0, i64 0), i32* %6)
  store i32 0, i32* %7, align 4
  br label %19

19:                                               ; preds = %81, %2
  %20 = load i32, i32* %7, align 4
  %21 = load i32, i32* %6, align 4
  %22 = icmp slt i32 %20, %21
  br i1 %22, label %23, label %84

23:                                               ; preds = %19
  store double 0.000000e+00, double* %12, align 8
  store double 0.000000e+00, double* %15, align 8
  %24 = call i32 (i8*, ...) @__isoc99_scanf(i8* getelementptr inbounds ([3 x i8], [3 x i8]* @.str, i64 0, i64 0), i32* %8)
  store i32 0, i32* %9, align 4
  br label %25

25:                                               ; preds = %40, %23
  %26 = load i32, i32* %9, align 4
  %27 = load i32, i32* %8, align 4
  %28 = icmp slt i32 %26, %27
  br i1 %28, label %29, label %43

29:                                               ; preds = %25
  %30 = load i32, i32* %9, align 4
  %31 = sext i32 %30 to i64
  %32 = getelementptr inbounds [100 x double], [100 x double]* %11, i64 0, i64 %31
  %33 = call i32 (i8*, ...) @__isoc99_scanf(i8* getelementptr inbounds ([4 x i8], [4 x i8]* @.str.1, i64 0, i64 0), double* %32)
  %34 = load double, double* %12, align 8
  %35 = load i32, i32* %9, align 4
  %36 = sext i32 %35 to i64
  %37 = getelementptr inbounds [100 x double], [100 x double]* %11, i64 0, i64 %36
  %38 = load double, double* %37, align 8
  %39 = fadd double %34, %38
  store double %39, double* %12, align 8
  br label %40

40:                                               ; preds = %29
  %41 = load i32, i32* %9, align 4
  %42 = add nsw i32 %41, 1
  store i32 %42, i32* %9, align 4
  br label %25

43:                                               ; preds = %25
  %44 = load double, double* %12, align 8
  %45 = load i32, i32* %8, align 4
  %46 = sitofp i32 %45 to double
  %47 = fdiv double %44, %46
  store double %47, double* %13, align 8
  store i32 0, i32* %10, align 4
  br label %48

48:                                               ; preds = %69, %43
  %49 = load i32, i32* %10, align 4
  %50 = load i32, i32* %8, align 4
  %51 = icmp slt i32 %49, %50
  br i1 %51, label %52, label %72

52:                                               ; preds = %48
  %53 = load i32, i32* %10, align 4
  %54 = sext i32 %53 to i64
  %55 = getelementptr inbounds [100 x double], [100 x double]* %11, i64 0, i64 %54
  %56 = load double, double* %55, align 8
  %57 = load double, double* %13, align 8
  %58 = fsub double %56, %57
  %59 = load i32, i32* %10, align 4
  %60 = sext i32 %59 to i64
  %61 = getelementptr inbounds [100 x double], [100 x double]* %11, i64 0, i64 %60
  %62 = load double, double* %61, align 8
  %63 = load double, double* %13, align 8
  %64 = fsub double %62, %63
  %65 = fmul double %58, %64
  store double %65, double* %14, align 8
  %66 = load double, double* %15, align 8
  %67 = load double, double* %14, align 8
  %68 = fadd double %66, %67
  store double %68, double* %15, align 8
  br label %69

69:                                               ; preds = %52
  %70 = load i32, i32* %10, align 4
  %71 = add nsw i32 %70, 1
  store i32 %71, i32* %10, align 4
  br label %48

72:                                               ; preds = %48
  %73 = load double, double* %15, align 8
  %74 = load i32, i32* %8, align 4
  %75 = sitofp i32 %74 to double
  %76 = fdiv double %73, %75
  store double %76, double* %16, align 8
  %77 = load double, double* %16, align 8
  %78 = call double @sqrt(double %77) #3
  store double %78, double* %17, align 8
  %79 = load double, double* %17, align 8
  %80 = call i32 (i8*, ...) @printf(i8* getelementptr inbounds ([7 x i8], [7 x i8]* @.str.2, i64 0, i64 0), double %79)
  br label %81

81:                                               ; preds = %72
  %82 = load i32, i32* %7, align 4
  %83 = add nsw i32 %82, 1
  store i32 %83, i32* %7, align 4
  br label %19

84:                                               ; preds = %19
  ret i32 0
}

declare dso_local i32 @__isoc99_scanf(i8*, ...) #1

; Function Attrs: nounwind
declare dso_local double @sqrt(double) #2

declare dso_local i32 @printf(i8*, ...) #1


!llvm.module.flags = !{!0}
!llvm.ident = !{!1}

!0 = !{i32 1, !"wchar_size", i32 4}
!1 = !{!"clang version 10.0.0-4ubuntu1 "}
